; ModuleID = 'source-C-CXX/34/1074.cpp'
source_filename = "source-C-CXX/34/1074.cpp"
target datalayout = "e-m:e-p270:32:32-p271:32:32-p272:64:64-i64:64-f80:128-n8:16:32:64-S128"
target triple = "x86_64-pc-linux-gnu"

%"class.std::ios_base::Init" = type { i8 }
%"class.std::basic_istream" = type { i32 (...)**, i64, %"class.std::basic_ios" }
%"class.std::basic_ios" = type { %"class.std::ios_base", %"class.std::basic_ostream"*, i8, i8, %"class.std::basic_streambuf"*, %"class.std::ctype"*, %"class.std::num_put"*, %"class.std::num_get"* }
%"class.std::ios_base" = type { i32 (...)**, i64, i64, i32, i32, i32, %"struct.std::ios_base::_Callback_list"*, %"struct.std::ios_base::_Words", [8 x %"struct.std::ios_base::_Words"], i32, %"struct.std::ios_base::_Words"*, %"class.std::locale" }
%"struct.std::ios_base::_Callback_list" = type { %"struct.std::ios_base::_Callback_list"*, void (i32, %"class.std::ios_base"*, i32)*, i32, i32 }
%"struct.std::ios_base::_Words" = type { i8*, i64 }
%"class.std::locale" = type { %"class.std::locale::_Impl"* }
%"class.std::locale::_Impl" = type { i32, %"class.std::locale::facet"**, i64, %"class.std::locale::facet"**, i8** }
%"class.std::locale::facet" = type <{ i32 (...)**, i32, [4 x i8] }>
%"class.std::basic_ostream" = type { i32 (...)**, %"class.std::basic_ios" }
%"class.std::basic_streambuf" = type { i32 (...)**, i8*, i8*, i8*, i8*, i8*, i8*, %"class.std::locale" }
%"class.std::ctype" = type <{ %"class.std::locale::facet.base", [4 x i8], %struct.__locale_struct*, i8, [7 x i8], i32*, i32*, i16*, i8, [256 x i8], [256 x i8], i8, [6 x i8] }>
%"class.std::locale::facet.base" = type <{ i32 (...)**, i32 }>
%struct.__locale_struct = type { [13 x %struct.__locale_data*], i16*, i32*, i32*, [13 x i8*] }
%struct.__locale_data = type opaque
%"class.std::num_put" = type { %"class.std::locale::facet.base", [4 x i8] }
%"class.std::num_get" = type { %"class.std::locale::facet.base", [4 x i8] }

@_ZStL8__ioinit = internal global %"class.std::ios_base::Init" zeroinitializer, align 1
@__dso_handle = external hidden global i8
@_ZSt3cin = external global %"class.std::basic_istream", align 8
@_ZSt4cout = external global %"class.std::basic_ostream", align 8
@.str = private unnamed_addr constant [3 x i8] c"No\00", align 1
@llvm.global_ctors = appending global [1 x { i32, void ()*, i8* }] [{ i32, void ()*, i8* } { i32 65535, void ()* @_GLOBAL__sub_I_1074.cpp, i8* null }]

declare void @_ZNSt8ios_base4InitC1Ev(%"class.std::ios_base::Init"* nonnull align 1 dereferenceable(1)) unnamed_addr #0

; Function Attrs: nounwind
declare void @_ZNSt8ios_base4InitD1Ev(%"class.std::ios_base::Init"* nonnull align 1 dereferenceable(1)) unnamed_addr #1

; Function Attrs: nofree nounwind
declare i32 @__cxa_atexit(void (i8*)*, i8*, i8*) local_unnamed_addr #2

; Function Attrs: mustprogress norecurse sspstrong uwtable
define dso_local i32 @main() local_unnamed_addr #3 {
  %1 = alloca i8, align 1
  %2 = alloca i32, align 4
  %3 = alloca i32, align 4
  %4 = alloca [8 x [8 x i32]], align 16
  %5 = alloca i8, align 1
  %6 = bitcast i32* %2 to i8*
  call void @llvm.lifetime.start.p0i8(i64 4, i8* nonnull %6) #6
  %7 = bitcast i32* %3 to i8*
  call void @llvm.lifetime.start.p0i8(i64 4, i8* nonnull %7) #6
  %8 = bitcast [8 x [8 x i32]]* %4 to i8*
  call void @llvm.lifetime.start.p0i8(i64 256, i8* nonnull %8) #6
  call void @llvm.lifetime.start.p0i8(i64 1, i8* nonnull %5) #6
  %9 = call nonnull align 8 dereferenceable(16) %"class.std::basic_istream"* @_ZNSirsERi(%"class.std::basic_istream"* nonnull align 8 dereferenceable(16) @_ZSt3cin, i32* nonnull align 4 dereferenceable(4) %2)
  %10 = call nonnull align 8 dereferenceable(16) %"class.std::basic_istream"* @_ZStrsIcSt11char_traitsIcEERSt13basic_istreamIT_T0_ES6_RS3_(%"class.std::basic_istream"* nonnull align 8 dereferenceable(16) %9, i8* nonnull align 1 dereferenceable(1) %5)
  %11 = call nonnull align 8 dereferenceable(16) %"class.std::basic_istream"* @_ZNSirsERi(%"class.std::basic_istream"* nonnull align 8 dereferenceable(16) %10, i32* nonnull align 4 dereferenceable(4) %3)
  %12 = load i32, i32* %2, align 4, !tbaa !5
  %13 = icmp sgt i32 %12, 0
  br i1 %13, label %14, label %130

14:                                               ; preds = %0
  %15 = load i32, i32* %3, align 4, !tbaa !5
  %16 = icmp sgt i32 %15, 0
  br i1 %16, label %17, label %24

17:                                               ; preds = %14, %36
  %18 = phi i32 [ %37, %36 ], [ %12, %14 ]
  %19 = phi i32 [ %38, %36 ], [ %15, %14 ]
  %20 = phi i64 [ %39, %36 ], [ 0, %14 ]
  %21 = icmp sgt i32 %19, 0
  br i1 %21, label %26, label %36

22:                                               ; preds = %36
  %23 = icmp sgt i32 %37, 0
  br i1 %23, label %24, label %130

24:                                               ; preds = %14, %22
  %25 = phi i32 [ %12, %14 ], [ %37, %22 ]
  br label %42

26:                                               ; preds = %17, %26
  %27 = phi i64 [ %30, %26 ], [ 0, %17 ]
  %28 = getelementptr inbounds [8 x [8 x i32]], [8 x [8 x i32]]* %4, i64 0, i64 %20, i64 %27
  %29 = call nonnull align 8 dereferenceable(16) %"class.std::basic_istream"* @_ZNSirsERi(%"class.std::basic_istream"* nonnull align 8 dereferenceable(16) @_ZSt3cin, i32* nonnull align 4 dereferenceable(4) %28)
  %30 = add nuw nsw i64 %27, 1
  %31 = load i32, i32* %3, align 4, !tbaa !5
  %32 = sext i32 %31 to i64
  %33 = icmp slt i64 %30, %32
  br i1 %33, label %26, label %34, !llvm.loop !9

34:                                               ; preds = %26
  %35 = load i32, i32* %2, align 4, !tbaa !5
  br label %36

36:                                               ; preds = %34, %17
  %37 = phi i32 [ %35, %34 ], [ %18, %17 ]
  %38 = phi i32 [ %31, %34 ], [ %19, %17 ]
  %39 = add nuw nsw i64 %20, 1
  %40 = sext i32 %37 to i64
  %41 = icmp slt i64 %39, %40
  br i1 %41, label %17, label %22, !llvm.loop !11

42:                                               ; preds = %24, %124
  %43 = phi i32 [ %126, %124 ], [ %25, %24 ]
  %44 = phi i64 [ %127, %124 ], [ 0, %24 ]
  %45 = phi i32 [ %125, %124 ], [ 0, %24 ]
  %46 = load i32, i32* %3, align 4, !tbaa !5
  %47 = icmp sgt i32 %46, 1
  br i1 %47, label %48, label %69

48:                                               ; preds = %42
  %49 = zext i32 %46 to i64
  %50 = add nsw i64 %49, -1
  %51 = and i64 %50, 1
  %52 = icmp eq i32 %46, 2
  br i1 %52, label %55, label %53

53:                                               ; preds = %48
  %54 = and i64 %50, -2
  br label %77

55:                                               ; preds = %77, %48
  %56 = phi i32 [ undef, %48 ], [ %97, %77 ]
  %57 = phi i64 [ 1, %48 ], [ %98, %77 ]
  %58 = phi i32 [ 0, %48 ], [ %97, %77 ]
  %59 = icmp eq i64 %51, 0
  br i1 %59, label %69, label %60

60:                                               ; preds = %55
  %61 = sext i32 %58 to i64
  %62 = getelementptr inbounds [8 x [8 x i32]], [8 x [8 x i32]]* %4, i64 0, i64 %44, i64 %61
  %63 = load i32, i32* %62, align 4, !tbaa !5
  %64 = getelementptr inbounds [8 x [8 x i32]], [8 x [8 x i32]]* %4, i64 0, i64 %44, i64 %57
  %65 = load i32, i32* %64, align 4, !tbaa !5
  %66 = icmp slt i32 %63, %65
  %67 = trunc i64 %57 to i32
  %68 = select i1 %66, i32 %67, i32 %58
  br label %69

69:                                               ; preds = %60, %55, %42
  %70 = phi i32 [ 0, %42 ], [ %56, %55 ], [ %68, %60 ]
  %71 = sext i32 %70 to i64
  %72 = icmp sgt i32 %43, 0
  br i1 %72, label %73, label %113

73:                                               ; preds = %69
  %74 = getelementptr inbounds [8 x [8 x i32]], [8 x [8 x i32]]* %4, i64 0, i64 %44, i64 %71
  %75 = load i32, i32* %74, align 4, !tbaa !5
  %76 = zext i32 %43 to i64
  br label %101

77:                                               ; preds = %77, %53
  %78 = phi i64 [ 1, %53 ], [ %98, %77 ]
  %79 = phi i32 [ 0, %53 ], [ %97, %77 ]
  %80 = phi i64 [ %54, %53 ], [ %99, %77 ]
  %81 = sext i32 %79 to i64
  %82 = getelementptr inbounds [8 x [8 x i32]], [8 x [8 x i32]]* %4, i64 0, i64 %44, i64 %81
  %83 = load i32, i32* %82, align 4, !tbaa !5
  %84 = getelementptr inbounds [8 x [8 x i32]], [8 x [8 x i32]]* %4, i64 0, i64 %44, i64 %78
  %85 = load i32, i32* %84, align 4, !tbaa !5
  %86 = icmp slt i32 %83, %85
  %87 = trunc i64 %78 to i32
  %88 = select i1 %86, i32 %87, i32 %79
  %89 = add nuw nsw i64 %78, 1
  %90 = sext i32 %88 to i64
  %91 = getelementptr inbounds [8 x [8 x i32]], [8 x [8 x i32]]* %4, i64 0, i64 %44, i64 %90
  %92 = load i32, i32* %91, align 4, !tbaa !5
  %93 = getelementptr inbounds [8 x [8 x i32]], [8 x [8 x i32]]* %4, i64 0, i64 %44, i64 %89
  %94 = load i32, i32* %93, align 4, !tbaa !5
  %95 = icmp slt i32 %92, %94
  %96 = trunc i64 %89 to i32
  %97 = select i1 %95, i32 %96, i32 %88
  %98 = add nuw nsw i64 %78, 2
  %99 = add i64 %80, -2
  %100 = icmp eq i64 %99, 0
  br i1 %100, label %55, label %77, !llvm.loop !13

101:                                              ; preds = %73, %109
  %102 = phi i64 [ 0, %73 ], [ %111, %109 ]
  %103 = phi i32 [ 0, %73 ], [ %110, %109 ]
  %104 = getelementptr inbounds [8 x [8 x i32]], [8 x [8 x i32]]* %4, i64 0, i64 %102, i64 %71
  %105 = load i32, i32* %104, align 4, !tbaa !5
  %106 = icmp sgt i32 %75, %105
  br i1 %106, label %107, label %109

107:                                              ; preds = %101
  %108 = add nsw i32 %45, 1
  br label %113

109:                                              ; preds = %101
  %110 = add nuw nsw i32 %103, 1
  %111 = add nuw nsw i64 %102, 1
  %112 = icmp eq i64 %111, %76
  br i1 %112, label %117, label %101, !llvm.loop !14

113:                                              ; preds = %69, %107
  %114 = phi i32 [ %103, %107 ], [ 0, %69 ]
  %115 = phi i32 [ %108, %107 ], [ %45, %69 ]
  %116 = icmp eq i32 %114, %43
  br i1 %116, label %117, label %124

117:                                              ; preds = %109, %113
  %118 = phi i32 [ %115, %113 ], [ %45, %109 ]
  %119 = trunc i64 %44 to i32
  %120 = call nonnull align 8 dereferenceable(8) %"class.std::basic_ostream"* @_ZNSolsEi(%"class.std::basic_ostream"* nonnull align 8 dereferenceable(8) @_ZSt4cout, i32 %119)
  call void @llvm.lifetime.start.p0i8(i64 1, i8* nonnull %1)
  store i8 43, i8* %1, align 1, !tbaa !15
  %121 = call nonnull align 8 dereferenceable(8) %"class.std::basic_ostream"* @_ZSt16__ostream_insertIcSt11char_traitsIcEERSt13basic_ostreamIT_T0_ES6_PKS3_l(%"class.std::basic_ostream"* nonnull align 8 dereferenceable(8) %120, i8* nonnull %1, i64 1)
  call void @llvm.lifetime.end.p0i8(i64 1, i8* nonnull %1)
  %122 = call nonnull align 8 dereferenceable(8) %"class.std::basic_ostream"* @_ZNSolsEi(%"class.std::basic_ostream"* nonnull align 8 dereferenceable(8) %121, i32 %70)
  %123 = load i32, i32* %2, align 4, !tbaa !5
  br label %124

124:                                              ; preds = %117, %113
  %125 = phi i32 [ %118, %117 ], [ %115, %113 ]
  %126 = phi i32 [ %123, %117 ], [ %43, %113 ]
  %127 = add nuw nsw i64 %44, 1
  %128 = sext i32 %126 to i64
  %129 = icmp slt i64 %127, %128
  br i1 %129, label %42, label %130, !llvm.loop !16

130:                                              ; preds = %124, %0, %22
  %131 = phi i32 [ 0, %22 ], [ 0, %0 ], [ %125, %124 ]
  %132 = phi i32 [ %37, %22 ], [ %12, %0 ], [ %126, %124 ]
  %133 = icmp eq i32 %131, %132
  br i1 %133, label %134, label %136

134:                                              ; preds = %130
  %135 = call nonnull align 8 dereferenceable(8) %"class.std::basic_ostream"* @_ZSt16__ostream_insertIcSt11char_traitsIcEERSt13basic_ostreamIT_T0_ES6_PKS3_l(%"class.std::basic_ostream"* nonnull align 8 dereferenceable(8) @_ZSt4cout, i8* nonnull getelementptr inbounds ([3 x i8], [3 x i8]* @.str, i64 0, i64 0), i64 2)
  br label %136

136:                                              ; preds = %134, %130
  call void @llvm.lifetime.end.p0i8(i64 1, i8* nonnull %5) #6
  call void @llvm.lifetime.end.p0i8(i64 256, i8* nonnull %8) #6
  call void @llvm.lifetime.end.p0i8(i64 4, i8* nonnull %7) #6
  call void @llvm.lifetime.end.p0i8(i64 4, i8* nonnull %6) #6
  ret i32 0
}

; Function Attrs: argmemonly mustprogress nofree nosync nounwind willreturn
declare void @llvm.lifetime.start.p0i8(i64 immarg, i8* nocapture) #4

declare nonnull align 8 dereferenceable(16) %"class.std::basic_istream"* @_ZStrsIcSt11char_traitsIcEERSt13basic_istreamIT_T0_ES6_RS3_(%"class.std::basic_istream"* nonnull align 8 dereferenceable(16), i8* nonnull align 1 dereferenceable(1)) local_unnamed_addr #0

declare nonnull align 8 dereferenceable(16) %"class.std::basic_istream"* @_ZNSirsERi(%"class.std::basic_istream"* nonnull align 8 dereferenceable(16), i32* nonnull align 4 dereferenceable(4)) local_unnamed_addr #0

declare nonnull align 8 dereferenceable(8) %"class.std::basic_ostream"* @_ZNSolsEi(%"class.std::basic_ostream"* nonnull align 8 dereferenceable(8), i32) local_unnamed_addr #0

; Function Attrs: argmemonly mustprogress nofree nosync nounwind willreturn
declare void @llvm.lifetime.end.p0i8(i64 immarg, i8* nocapture) #4

declare nonnull align 8 dereferenceable(8) %"class.std::basic_ostream"* @_ZSt16__ostream_insertIcSt11char_traitsIcEERSt13basic_ostreamIT_T0_ES6_PKS3_l(%"class.std::basic_ostream"* nonnull align 8 dereferenceable(8), i8*, i64) local_unnamed_addr #0

; Function Attrs: sspstrong uwtable
define internal void @_GLOBAL__sub_I_1074.cpp() #5 section ".text.startup" {
  tail call void @_ZNSt8ios_base4InitC1Ev(%"class.std::ios_base::Init"* nonnull align 1 dereferenceable(1) @_ZStL8__ioinit)
  %1 = tail call i32 @__cxa_atexit(void (i8*)* bitcast (void (%"class.std::ios_base::Init"*)* @_ZNSt8ios_base4InitD1Ev to void (i8*)*), i8* getelementptr inbounds (%"class.std::ios_base::Init", %"class.std::ios_base::Init"* @_ZStL8__ioinit, i64 0, i32 0), i8* nonnull @__dso_handle) #6
  ret void
}


!llvm.module.flags = !{!0, !1, !2, !3}
!llvm.ident = !{!4}

!0 = !{i32 1, !"wchar_size", i32 4}
!1 = !{i32 7, !"PIC Level", i32 2}
!2 = !{i32 7, !"PIE Level", i32 2}
!3 = !{i32 7, !"uwtable", i32 1}
!4 = !{!"clang version 13.0.0"}
!5 = !{!6, !6, i64 0}
!6 = !{!"int", !7, i64 0}
!7 = !{!"omnipotent char", !8, i64 0}
!8 = !{!"Simple C++ TBAA"}
!9 = distinct !{!9, !10}
!10 = !{!"llvm.loop.mustprogress"}
!11 = distinct !{!11, !10, !12}
!12 = !{!"llvm.loop.unswitch.partial.disable"}
!13 = distinct !{!13, !10}
!14 = distinct !{!14, !10}
!15 = !{!7, !7, i64 0}
!16 = distinct !{!16, !10}
